target datalayout = "e-m:e-p270:32:32-p271:32:32-p272:64:64-i64:64-i128:128-f80:128-n8:16:32:64-S128"
target triple = "x86_64-pc-linux-gnu"

; Function Attrs: nounwind uwtable
define i32 @H5T_is_vl_storage(ptr noundef %0) #0 {
  %2 = alloca ptr, align 8
  %3 = alloca i32, align 4
  store ptr %0, ptr %2, align 8
  store i32 0, ptr %3, align 4
  %4 = load ptr, ptr %2, align 8
  %5 = call i32 @H5T_detect_class(ptr noundef %4, i32 noundef 9, i1 noundef zeroext false)
  %6 = icmp ne i32 %5, 0
  br i1 %6, label %7, label %8

7:                                                ; preds = %1
  store i32 1, ptr %3, align 4
  br label %18

8:                                                ; preds = %1
  %9 = load ptr, ptr %2, align 8
  %10 = call i32 @H5T_detect_class(ptr noundef %9, i32 noundef 7, i1 noundef zeroext false)
  %11 = icmp ne i32 %10, 0
  br i1 %11, label %12, label %16

12:                                               ; preds = %8
  %13 = load ptr, ptr %2, align 8
  %14 = call zeroext i1 @H5T__detect_vlen_ref(ptr noundef %13)
  %15 = zext i1 %14 to i32
  store i32 %15, ptr %3, align 4
  br label %17

16:                                               ; preds = %8
  store i32 0, ptr %3, align 4
  br label %17

17:                                               ; preds = %16, %12
  br label %18

18:                                               ; preds = %17, %7
  %19 = load i32, ptr %3, align 4
  ret i32 %19
}