; Function Attrs: nofree nosync nounwind memory(read, inaccessiblemem: none) uwtable
define range(i32 0, 2) i32 @H5T_is_vl_storage(ptr nocapture noundef readonly %0) local_unnamed_addr #6 {
  %2 = tail call i32 @H5T_detect_class(ptr noundef %0, i32 noundef 9, i1 noundef zeroext false)
  %.not = icmp eq i32 %2, 0
  br i1 %.not, label %3, label %8

3:                                                ; preds = %1
  %4 = tail call i32 @H5T_detect_class(ptr noundef %0, i32 noundef 7, i1 noundef zeroext false)
  %.not3 = icmp eq i32 %4, 0
  br i1 %.not3, label %8, label %5

5:                                                ; preds = %3
  %6 = tail call fastcc zeroext i1 @H5T__detect_vlen_ref(ptr noundef %0)
  %7 = zext i1 %6 to i32
  br label %8

8:                                                ; preds = %3, %1, %5
  %.0 = phi i32 [ %7, %5 ], [ 1, %1 ], [ 0, %3 ]
  ret i32 %.0
}